target datalayout = "e-m:e-p270:32:32-p271:32:32-p272:64:64-i64:64-i128:128-f80:128-n8:16:32:64-S128"
target triple = "x86_64-pc-linux-gnu"

%struct.cmsCIEXYZ = type { double, double, double }
%struct.cmsCIELab = type { double, double, double }

; Function Attrs: nounwind uwtable
define internal double @f(double noundef %0) #0 {
  %2 = alloca double, align 8
  %3 = alloca double, align 8
  %4 = alloca double, align 8
  store double %0, ptr %3, align 8
  store double 0x3F822354D28F7CD6, ptr %4, align 8
  %5 = load double, ptr %3, align 8
  %6 = fcmp ole double %5, 0x3F822354D28F7CD6
  br i1 %6, label %7, label %10

7:                                                ; preds = %1
  %8 = load double, ptr %3, align 8
  %9 = call double @llvm.fmuladd.f64(double 0x401F25ED097B425F, double %8, double 0x3FC1A7B9611A7B96)
  store double %9, ptr %2, align 8
  br label %13

10:                                               ; preds = %1
  %11 = load double, ptr %3, align 8
  %12 = call double @pow(double noundef %11, double noundef 0x3FD5555555555555) #4
  store double %12, ptr %2, align 8
  br label %13

13:                                               ; preds = %10, %7
  %14 = load double, ptr %2, align 8
  ret double %14
}

; Function Attrs: nounwind uwtable
define hidden void @cmsXYZ2Lab(ptr noundef %0, ptr noundef %1, ptr noundef %2) #0 {
  %4 = alloca ptr, align 8
  %5 = alloca ptr, align 8
  %6 = alloca ptr, align 8
  %7 = alloca double, align 8
  %8 = alloca double, align 8
  %9 = alloca double, align 8
  store ptr %0, ptr %4, align 8
  store ptr %1, ptr %5, align 8
  store ptr %2, ptr %6, align 8
  %10 = load ptr, ptr %4, align 8
  %11 = icmp eq ptr %10, null
  br i1 %11, label %12, label %14

12:                                               ; preds = %3
  %13 = call ptr @cmsD50_XYZ()
  store ptr %13, ptr %4, align 8
  br label %14

14:                                               ; preds = %12, %3
  %15 = load ptr, ptr %6, align 8
  %16 = getelementptr inbounds %struct.cmsCIEXYZ, ptr %15, i32 0, i32 0
  %17 = load double, ptr %16, align 8
  %18 = load ptr, ptr %4, align 8
  %19 = getelementptr inbounds %struct.cmsCIEXYZ, ptr %18, i32 0, i32 0
  %20 = load double, ptr %19, align 8
  %21 = fdiv double %17, %20
  %22 = call double @f(double noundef %21)
  store double %22, ptr %7, align 8
  %23 = load ptr, ptr %6, align 8
  %24 = getelementptr inbounds %struct.cmsCIEXYZ, ptr %23, i32 0, i32 1
  %25 = load double, ptr %24, align 8
  %26 = load ptr, ptr %4, align 8
  %27 = getelementptr inbounds %struct.cmsCIEXYZ, ptr %26, i32 0, i32 1
  %28 = load double, ptr %27, align 8
  %29 = fdiv double %25, %28
  %30 = call double @f(double noundef %29)
  store double %30, ptr %8, align 8
  %31 = load ptr, ptr %6, align 8
  %32 = getelementptr inbounds %struct.cmsCIEXYZ, ptr %31, i32 0, i32 2
  %33 = load double, ptr %32, align 8
  %34 = load ptr, ptr %4, align 8
  %35 = getelementptr inbounds %struct.cmsCIEXYZ, ptr %34, i32 0, i32 2
  %36 = load double, ptr %35, align 8
  %37 = fdiv double %33, %36
  %38 = call double @f(double noundef %37)
  store double %38, ptr %9, align 8
  %39 = load double, ptr %8, align 8
  %40 = call double @llvm.fmuladd.f64(double 1.160000e+02, double %39, double -1.600000e+01)
  %41 = load ptr, ptr %5, align 8
  %42 = getelementptr inbounds %struct.cmsCIELab, ptr %41, i32 0, i32 0
  store double %40, ptr %42, align 8
  %43 = load double, ptr %7, align 8
  %44 = load double, ptr %8, align 8
  %45 = fsub double %43, %44
  %46 = fmul double 5.000000e+02, %45
  %47 = load ptr, ptr %5, align 8
  %48 = getelementptr inbounds %struct.cmsCIELab, ptr %47, i32 0, i32 1
  store double %46, ptr %48, align 8
  %49 = load double, ptr %8, align 8
  %50 = load double, ptr %9, align 8
  %51 = fsub double %49, %50
  %52 = fmul double 2.000000e+02, %51
  %53 = load ptr, ptr %5, align 8
  %54 = getelementptr inbounds %struct.cmsCIELab, ptr %53, i32 0, i32 2
  store double %52, ptr %54, align 8
  ret void
}