; Function Attrs: nounwind uwtable
define hidden void @cmsXYZ2Lab(ptr noundef readonly %0, ptr nocapture noundef writeonly %1, ptr nocapture noundef readonly %2) local_unnamed_addr #1 {
  %4 = icmp eq ptr %0, null
  br i1 %4, label %5, label %7

5:                                                ; preds = %3
  %6 = tail call ptr @cmsD50_XYZ() #10
  br label %7

7:                                                ; preds = %5, %3
  %.0 = phi ptr [ %6, %5 ], [ %0, %3 ]
  %8 = load double, ptr %2, align 8
  %9 = load double, ptr %.0, align 8
  %10 = fdiv double %8, %9
  %11 = fcmp ugt double %10, 0x3F822354D28F7CD6
  br i1 %11, label %14, label %12

12:                                               ; preds = %7
  %13 = tail call double @llvm.fmuladd.f64(double %10, double 0x401F25ED097B425F, double 0x3FC1A7B9611A7B96)
  br label %f.exit

14:                                               ; preds = %7
  %15 = tail call double @pow(double noundef %10, double noundef 0x3FD5555555555555) #10
  br label %f.exit

f.exit:                                           ; preds = %12, %14
  %.0.i = phi double [ %13, %12 ], [ %15, %14 ]
  %16 = getelementptr inbounds i8, ptr %2, i64 8
  %17 = load double, ptr %16, align 8
  %18 = getelementptr inbounds i8, ptr %.0, i64 8
  %19 = load double, ptr %18, align 8
  %20 = fdiv double %17, %19
  %21 = fcmp ugt double %20, 0x3F822354D28F7CD6
  br i1 %21, label %24, label %22

22:                                               ; preds = %f.exit
  %23 = tail call double @llvm.fmuladd.f64(double %20, double 0x401F25ED097B425F, double 0x3FC1A7B9611A7B96)
  br label %f.exit17

24:                                               ; preds = %f.exit
  %25 = tail call double @pow(double noundef %20, double noundef 0x3FD5555555555555) #10
  br label %f.exit17

f.exit17:                                         ; preds = %22, %24
  %.0.i16 = phi double [ %23, %22 ], [ %25, %24 ]
  %26 = getelementptr inbounds i8, ptr %2, i64 16
  %27 = load double, ptr %26, align 8
  %28 = getelementptr inbounds i8, ptr %.0, i64 16
  %29 = load double, ptr %28, align 8
  %30 = fdiv double %27, %29
  %31 = fcmp ugt double %30, 0x3F822354D28F7CD6
  br i1 %31, label %34, label %32

32:                                               ; preds = %f.exit17
  %33 = tail call double @llvm.fmuladd.f64(double %30, double 0x401F25ED097B425F, double 0x3FC1A7B9611A7B96)
  br label %f.exit19

34:                                               ; preds = %f.exit17
  %35 = tail call double @pow(double noundef %30, double noundef 0x3FD5555555555555) #10
  br label %f.exit19

f.exit19:                                         ; preds = %32, %34
  %.0.i18 = phi double [ %33, %32 ], [ %35, %34 ]
  %36 = tail call double @llvm.fmuladd.f64(double %.0.i16, double 1.160000e+02, double -1.600000e+01)
  store double %36, ptr %1, align 8
  %37 = insertelement <2 x double> poison, double %.0.i, i64 0
  %38 = insertelement <2 x double> %37, double %.0.i16, i64 1
  %39 = insertelement <2 x double> poison, double %.0.i16, i64 0
  %40 = insertelement <2 x double> %39, double %.0.i18, i64 1
  %41 = fsub <2 x double> %38, %40
  %42 = getelementptr inbounds i8, ptr %1, i64 8
  %43 = fmul <2 x double> %41, <double 5.000000e+02, double 2.000000e+02>
  store <2 x double> %43, ptr %42, align 8
  ret void
}